target datalayout = "e-m:e-p270:32:32-p271:32:32-p272:64:64-i64:64-i128:128-f80:128-n8:16:32:64-S128"
target triple = "x86_64-pc-linux-gnu"

%struct.VP8Matrix = type { [16 x i16], [16 x i16], [16 x i32], [16 x i32], [16 x i16] }

@kZigzag = internal constant [16 x i8] c"\00\01\04\08\05\02\03\06\09\0C\0D\0A\07\0B\0E\0F", align 16

; Function Attrs: inlinehint nounwind uwtable
define internal i32 @QUANTDIV(i32 noundef %0, i32 noundef %1, i32 noundef %2) #4 {
  %4 = alloca i32, align 4
  %5 = alloca i32, align 4
  %6 = alloca i32, align 4
  store i32 %0, ptr %4, align 4, !tbaa !9
  store i32 %1, ptr %5, align 4, !tbaa !9
  store i32 %2, ptr %6, align 4, !tbaa !9
  %7 = load i32, ptr %4, align 4, !tbaa !9
  %8 = load i32, ptr %5, align 4, !tbaa !9
  %9 = mul i32 %7, %8
  %10 = load i32, ptr %6, align 4, !tbaa !9
  %11 = add i32 %9, %10
  %12 = lshr i32 %11, 17
  ret i32 %12
}

; Function Attrs: nounwind uwtable
define internal i32 @QuantizeBlock_C(ptr noundef %0, ptr noundef %1, ptr noalias noundef %2) #0 {
  %4 = alloca ptr, align 8
  %5 = alloca ptr, align 8
  %6 = alloca ptr, align 8
  %7 = alloca i32, align 4
  %8 = alloca i32, align 4
  %9 = alloca i32, align 4
  %10 = alloca i32, align 4
  %11 = alloca i32, align 4
  %12 = alloca i32, align 4
  %13 = alloca i32, align 4
  %14 = alloca i32, align 4
  %15 = alloca i32, align 4
  store ptr %0, ptr %4, align 8, !tbaa !20
  store ptr %1, ptr %5, align 8, !tbaa !20
  store ptr %2, ptr %6, align 8, !tbaa !32
  call void @llvm.lifetime.start.p0(i64 4, ptr %7) #8
  store i32 -1, ptr %7, align 4, !tbaa !9
  call void @llvm.lifetime.start.p0(i64 4, ptr %8) #8
  store i32 0, ptr %8, align 4, !tbaa !9
  br label %16

16:                                               ; preds = %132, %3
  %17 = load i32, ptr %8, align 4, !tbaa !9
  %18 = icmp slt i32 %17, 16
  br i1 %18, label %19, label %135

19:                                               ; preds = %16
  call void @llvm.lifetime.start.p0(i64 4, ptr %9) #8
  %20 = load i32, ptr %8, align 4, !tbaa !9
  %21 = sext i32 %20 to i64
  %22 = getelementptr inbounds [16 x i8], ptr @kZigzag, i64 0, i64 %21
  %23 = load i8, ptr %22, align 1, !tbaa !16
  %24 = zext i8 %23 to i32
  store i32 %24, ptr %9, align 4, !tbaa !9
  call void @llvm.lifetime.start.p0(i64 4, ptr %10) #8
  %25 = load ptr, ptr %4, align 8, !tbaa !20
  %26 = load i32, ptr %9, align 4, !tbaa !9
  %27 = sext i32 %26 to i64
  %28 = getelementptr inbounds i16, ptr %25, i64 %27
  %29 = load i16, ptr %28, align 2, !tbaa !23
  %30 = sext i16 %29 to i32
  %31 = icmp slt i32 %30, 0
  %32 = zext i1 %31 to i32
  store i32 %32, ptr %10, align 4, !tbaa !9
  call void @llvm.lifetime.start.p0(i64 4, ptr %11) #8
  %33 = load i32, ptr %10, align 4, !tbaa !9
  %34 = icmp ne i32 %33, 0
  br i1 %34, label %35, label %43

35:                                               ; preds = %19
  %36 = load ptr, ptr %4, align 8, !tbaa !20
  %37 = load i32, ptr %9, align 4, !tbaa !9
  %38 = sext i32 %37 to i64
  %39 = getelementptr inbounds i16, ptr %36, i64 %38
  %40 = load i16, ptr %39, align 2, !tbaa !23
  %41 = sext i16 %40 to i32
  %42 = sub nsw i32 0, %41
  br label %50

43:                                               ; preds = %19
  %44 = load ptr, ptr %4, align 8, !tbaa !20
  %45 = load i32, ptr %9, align 4, !tbaa !9
  %46 = sext i32 %45 to i64
  %47 = getelementptr inbounds i16, ptr %44, i64 %46
  %48 = load i16, ptr %47, align 2, !tbaa !23
  %49 = sext i16 %48 to i32
  br label %50

50:                                               ; preds = %43, %35
  %51 = phi i32 [ %42, %35 ], [ %49, %43 ]
  %52 = load ptr, ptr %6, align 8, !tbaa !32
  %53 = getelementptr inbounds nuw %struct.VP8Matrix, ptr %52, i32 0, i32 4
  %54 = load i32, ptr %9, align 4, !tbaa !9
  %55 = sext i32 %54 to i64
  %56 = getelementptr inbounds [16 x i16], ptr %53, i64 0, i64 %55
  %57 = load i16, ptr %56, align 2, !tbaa !23
  %58 = zext i16 %57 to i32
  %59 = add nsw i32 %51, %58
  store i32 %59, ptr %11, align 4, !tbaa !9
  %60 = load i32, ptr %11, align 4, !tbaa !9
  %61 = load ptr, ptr %6, align 8, !tbaa !32
  %62 = getelementptr inbounds nuw %struct.VP8Matrix, ptr %61, i32 0, i32 3
  %63 = load i32, ptr %9, align 4, !tbaa !9
  %64 = sext i32 %63 to i64
  %65 = getelementptr inbounds [16 x i32], ptr %62, i64 0, i64 %64
  %66 = load i32, ptr %65, align 4, !tbaa !9
  %67 = icmp ugt i32 %60, %66
  br i1 %67, label %68, label %122

68:                                               ; preds = %50
  call void @llvm.lifetime.start.p0(i64 4, ptr %12) #8
  %69 = load ptr, ptr %6, align 8, !tbaa !32
  %70 = getelementptr inbounds nuw %struct.VP8Matrix, ptr %69, i32 0, i32 0
  %71 = load i32, ptr %9, align 4, !tbaa !9
  %72 = sext i32 %71 to i64
  %73 = getelementptr inbounds [16 x i16], ptr %70, i64 0, i64 %72
  %74 = load i16, ptr %73, align 2, !tbaa !23
  %75 = zext i16 %74 to i32
  store i32 %75, ptr %12, align 4, !tbaa !9
  call void @llvm.lifetime.start.p0(i64 4, ptr %13) #8
  %76 = load ptr, ptr %6, align 8, !tbaa !32
  %77 = getelementptr inbounds nuw %struct.VP8Matrix, ptr %76, i32 0, i32 1
  %78 = load i32, ptr %9, align 4, !tbaa !9
  %79 = sext i32 %78 to i64
  %80 = getelementptr inbounds [16 x i16], ptr %77, i64 0, i64 %79
  %81 = load i16, ptr %80, align 2, !tbaa !23
  %82 = zext i16 %81 to i32
  store i32 %82, ptr %13, align 4, !tbaa !9
  call void @llvm.lifetime.start.p0(i64 4, ptr %14) #8
  %83 = load ptr, ptr %6, align 8, !tbaa !32
  %84 = getelementptr inbounds nuw %struct.VP8Matrix, ptr %83, i32 0, i32 2
  %85 = load i32, ptr %9, align 4, !tbaa !9
  %86 = sext i32 %85 to i64
  %87 = getelementptr inbounds [16 x i32], ptr %84, i64 0, i64 %86
  %88 = load i32, ptr %87, align 4, !tbaa !9
  store i32 %88, ptr %14, align 4, !tbaa !9
  call void @llvm.lifetime.start.p0(i64 4, ptr %15) #8
  %89 = load i32, ptr %11, align 4, !tbaa !9
  %90 = load i32, ptr %13, align 4, !tbaa !9
  %91 = load i32, ptr %14, align 4, !tbaa !9
  %92 = call i32 @QUANTDIV(i32 noundef %89, i32 noundef %90, i32 noundef %91)
  store i32 %92, ptr %15, align 4, !tbaa !9
  %93 = load i32, ptr %15, align 4, !tbaa !9
  %94 = icmp sgt i32 %93, 2047
  br i1 %94, label %95, label %96

95:                                               ; preds = %68
  store i32 2047, ptr %15, align 4, !tbaa !9
  br label %96

96:                                               ; preds = %95, %68
  %97 = load i32, ptr %10, align 4, !tbaa !9
  %98 = icmp ne i32 %97, 0
  br i1 %98, label %99, label %102

99:                                               ; preds = %96
  %100 = load i32, ptr %15, align 4, !tbaa !9
  %101 = sub nsw i32 0, %100
  store i32 %101, ptr %15, align 4, !tbaa !9
  br label %102

102:                                              ; preds = %99, %96
  %103 = load i32, ptr %15, align 4, !tbaa !9
  %104 = load i32, ptr %12, align 4, !tbaa !9
  %105 = mul nsw i32 %103, %104
  %106 = trunc i32 %105 to i16
  %107 = load ptr, ptr %4, align 8, !tbaa !20
  %108 = load i32, ptr %9, align 4, !tbaa !9
  %109 = sext i32 %108 to i64
  %110 = getelementptr inbounds i16, ptr %107, i64 %109
  store i16 %106, ptr %110, align 2, !tbaa !23
  %111 = load i32, ptr %15, align 4, !tbaa !9
  %112 = trunc i32 %111 to i16
  %113 = load ptr, ptr %5, align 8, !tbaa !20
  %114 = load i32, ptr %8, align 4, !tbaa !9
  %115 = sext i32 %114 to i64
  %116 = getelementptr inbounds i16, ptr %113, i64 %115
  store i16 %112, ptr %116, align 2, !tbaa !23
  %117 = load i32, ptr %15, align 4, !tbaa !9
  %118 = icmp ne i32 %117, 0
  br i1 %118, label %119, label %121

119:                                              ; preds = %102
  %120 = load i32, ptr %8, align 4, !tbaa !9
  store i32 %120, ptr %7, align 4, !tbaa !9
  br label %121

121:                                              ; preds = %119, %102
  call void @llvm.lifetime.end.p0(i64 4, ptr %15) #8
  call void @llvm.lifetime.end.p0(i64 4, ptr %14) #8
  call void @llvm.lifetime.end.p0(i64 4, ptr %13) #8
  call void @llvm.lifetime.end.p0(i64 4, ptr %12) #8
  br label %131

122:                                              ; preds = %50
  %123 = load ptr, ptr %5, align 8, !tbaa !20
  %124 = load i32, ptr %8, align 4, !tbaa !9
  %125 = sext i32 %124 to i64
  %126 = getelementptr inbounds i16, ptr %123, i64 %125
  store i16 0, ptr %126, align 2, !tbaa !23
  %127 = load ptr, ptr %4, align 8, !tbaa !20
  %128 = load i32, ptr %9, align 4, !tbaa !9
  %129 = sext i32 %128 to i64
  %130 = getelementptr inbounds i16, ptr %127, i64 %129
  store i16 0, ptr %130, align 2, !tbaa !23
  br label %131

131:                                              ; preds = %122, %121
  call void @llvm.lifetime.end.p0(i64 4, ptr %11) #8
  call void @llvm.lifetime.end.p0(i64 4, ptr %10) #8
  call void @llvm.lifetime.end.p0(i64 4, ptr %9) #8
  br label %132

132:                                              ; preds = %131
  %133 = load i32, ptr %8, align 4, !tbaa !9
  %134 = add nsw i32 %133, 1
  store i32 %134, ptr %8, align 4, !tbaa !9
  br label %16, !llvm.loop !34

135:                                              ; preds = %16
  %136 = load i32, ptr %7, align 4, !tbaa !9
  %137 = icmp sge i32 %136, 0
  %138 = zext i1 %137 to i32
  call void @llvm.lifetime.end.p0(i64 4, ptr %8) #8
  call void @llvm.lifetime.end.p0(i64 4, ptr %7) #8
  ret i32 %138
}