; Function Attrs: nofree norecurse nosync nounwind memory(argmem: readwrite) uwtable
define internal range(i32 0, 2) i32 @QuantizeBlock_C(ptr noundef captures(none) %0, ptr noundef writeonly captures(none) %1, ptr noalias noundef readonly captures(none) %2) #0 {
  %4 = getelementptr inbounds nuw i8, ptr %2, i64 192
  %5 = getelementptr inbounds nuw i8, ptr %2, i64 128
  %6 = getelementptr inbounds nuw i8, ptr %2, i64 32
  %7 = getelementptr inbounds nuw i8, ptr %2, i64 64
  br label %8

8:                                                ; preds = %3, %42
  %indvars.iv = phi i64 [ 0, %3 ], [ %indvars.iv.next, %42 ]
  %.04046 = phi i32 [ -1, %3 ], [ %.2, %42 ]
  %9 = getelementptr inbounds nuw [16 x i8], ptr @kZigzag, i64 0, i64 %indvars.iv
  %10 = load i8, ptr %9, align 1, !tbaa !14
  %11 = zext i8 %10 to i64
  %12 = getelementptr inbounds nuw i16, ptr %0, i64 %11
  %13 = load i16, ptr %12, align 2, !tbaa !17
  %14 = tail call i16 @llvm.abs.i16(i16 %13, i1 false)
  %15 = zext i16 %14 to i32
  %16 = getelementptr inbounds nuw [16 x i16], ptr %4, i64 0, i64 %11
  %17 = load i16, ptr %16, align 2, !tbaa !17
  %18 = zext i16 %17 to i32
  %19 = add nuw nsw i32 %15, %18
  %20 = getelementptr inbounds nuw [16 x i32], ptr %5, i64 0, i64 %11
  %21 = load i32, ptr %20, align 4, !tbaa !3
  %22 = icmp ugt i32 %19, %21
  br i1 %22, label %23, label %40

23:                                               ; preds = %8
  %24 = icmp slt i16 %13, 0
  %25 = getelementptr inbounds nuw [16 x i16], ptr %2, i64 0, i64 %11
  %26 = load i16, ptr %25, align 2, !tbaa !17
  %27 = getelementptr inbounds nuw [16 x i16], ptr %6, i64 0, i64 %11
  %28 = load i16, ptr %27, align 2, !tbaa !17
  %29 = zext i16 %28 to i32
  %30 = getelementptr inbounds nuw [16 x i32], ptr %7, i64 0, i64 %11
  %31 = load i32, ptr %30, align 4, !tbaa !3
  %32 = mul i32 %19, %29
  %33 = add i32 %32, %31
  %34 = lshr i32 %33, 17
  %spec.store.select = tail call i32 @llvm.umin.i32(i32 %34, i32 2047)
  %35 = sub nsw i32 0, %spec.store.select
  %spec.select = select i1 %24, i32 %35, i32 %spec.store.select
  %36 = trunc nsw i32 %spec.select to i16
  %37 = mul i16 %26, %36
  store i16 %37, ptr %12, align 2, !tbaa !17
  %38 = getelementptr inbounds nuw i16, ptr %1, i64 %indvars.iv
  store i16 %36, ptr %38, align 2, !tbaa !17
  %.not = icmp eq i32 %spec.select, 0
  %39 = trunc nuw nsw i64 %indvars.iv to i32
  %.1 = select i1 %.not, i32 %.04046, i32 %39
  br label %42

40:                                               ; preds = %8
  %41 = getelementptr inbounds nuw i16, ptr %1, i64 %indvars.iv
  store i16 0, ptr %41, align 2, !tbaa !17
  store i16 0, ptr %12, align 2, !tbaa !17
  br label %42

42:                                               ; preds = %40, %23
  %.2 = phi i32 [ %.1, %23 ], [ %.04046, %40 ]
  %indvars.iv.next = add nuw nsw i64 %indvars.iv, 1
  %exitcond.not = icmp eq i64 %indvars.iv.next, 16
  br i1 %exitcond.not, label %43, label %8, !llvm.loop !78

43:                                               ; preds = %42
  %44 = icmp sgt i32 %.2, -1
  %45 = zext i1 %44 to i32
  ret i32 %45
}